; Function Attrs: mustprogress nounwind uwtable
define dso_local void @_ZN4llvm4yaml6Output7flowKeyENS_9StringRefE(ptr noundef nonnull align 8 dereferenceable(128) %0, ptr %1, i64 %2) local_unnamed_addr #6 align 2 {
  %4 = getelementptr inbounds nuw i8, ptr %0, i64 32
  %5 = load ptr, ptr %4, align 8
  %6 = tail call noundef i64 @_ZNK4llvm15SmallVectorBaseIjE4sizeEv(ptr noundef nonnull align 8 dereferenceable(16) %4) #32
  %7 = getelementptr inbounds i32, ptr %5, i64 %6
  %8 = getelementptr inbounds i8, ptr %7, i64 -4
  %9 = load i32, ptr %8, align 4
  %10 = icmp eq i32 %9, 7
  br i1 %10, label %11, label %_ZN4llvm4yaml6Output6outputENS_9StringRefE.exit

11:                                               ; preds = %3
  %12 = getelementptr inbounds nuw i8, ptr %0, i64 80
  %13 = load i32, ptr %12, align 8
  %14 = add i32 %13, 2
  store i32 %14, ptr %12, align 8
  %15 = getelementptr inbounds nuw i8, ptr %0, i64 16
  %16 = load ptr, ptr %15, align 8
  %17 = getelementptr inbounds nuw i8, ptr %16, i64 24
  %18 = load ptr, ptr %17, align 8
  %19 = getelementptr inbounds nuw i8, ptr %16, i64 32
  %20 = load ptr, ptr %19, align 8
  %21 = ptrtoint ptr %18 to i64
  %22 = ptrtoint ptr %20 to i64
  %23 = sub i64 %21, %22
  %24 = icmp ult i64 %23, 2
  br i1 %24, label %25, label %27

25:                                               ; preds = %11
  %26 = tail call noundef nonnull align 8 dereferenceable(48) ptr @_ZN4llvm11raw_ostream5writeEPKcm(ptr noundef nonnull align 8 dereferenceable(48) %16, ptr noundef nonnull @.str.26, i64 noundef 2) #32
  br label %_ZN4llvm4yaml6Output6outputENS_9StringRefE.exit

27:                                               ; preds = %11
  store i16 8236, ptr %20, align 1
  %28 = load ptr, ptr %19, align 8
  %29 = getelementptr inbounds nuw i8, ptr %28, i64 2
  store ptr %29, ptr %19, align 8
  br label %_ZN4llvm4yaml6Output6outputENS_9StringRefE.exit

_ZN4llvm4yaml6Output6outputENS_9StringRefE.exit:  ; preds = %27, %25, %3
  %30 = getelementptr inbounds nuw i8, ptr %0, i64 24
  %31 = load i32, ptr %30, align 8
  %.not = icmp eq i32 %31, 0
  br i1 %.not, label %_ZN4llvm4yaml6Output6outputENS_9StringRefE.exit13, label %32

32:                                               ; preds = %_ZN4llvm4yaml6Output6outputENS_9StringRefE.exit
  %33 = getelementptr inbounds nuw i8, ptr %0, i64 80
  %34 = load i32, ptr %33, align 8
  %35 = icmp sgt i32 %34, %31
  br i1 %35, label %36, label %_ZN4llvm4yaml6Output6outputENS_9StringRefE.exit13

36:                                               ; preds = %32
  %37 = add i32 %34, 1
  store i32 %37, ptr %33, align 8
  %38 = getelementptr inbounds nuw i8, ptr %0, i64 16
  %39 = load ptr, ptr %38, align 8
  %40 = getelementptr inbounds nuw i8, ptr %39, i64 24
  %41 = load ptr, ptr %40, align 8
  %42 = getelementptr inbounds nuw i8, ptr %39, i64 32
  %43 = load ptr, ptr %42, align 8
  %44 = icmp eq ptr %41, %43
  br i1 %44, label %45, label %47

45:                                               ; preds = %36
  %46 = tail call noundef nonnull align 8 dereferenceable(48) ptr @_ZN4llvm11raw_ostream5writeEPKcm(ptr noundef nonnull align 8 dereferenceable(48) %39, ptr noundef nonnull @.str.14, i64 noundef 1) #32
  br label %_ZN4llvm4yaml6Output6outputENS_9StringRefE.exit9

47:                                               ; preds = %36
  store i8 10, ptr %43, align 1
  %48 = load ptr, ptr %42, align 8
  %49 = getelementptr inbounds nuw i8, ptr %48, i64 1
  store ptr %49, ptr %42, align 8
  br label %_ZN4llvm4yaml6Output6outputENS_9StringRefE.exit9

_ZN4llvm4yaml6Output6outputENS_9StringRefE.exit9: ; preds = %45, %47
  %50 = getelementptr inbounds nuw i8, ptr %0, i64 88
  %51 = load i32, ptr %50, align 8
  %52 = icmp sgt i32 %51, 0
  br i1 %52, label %.lr.ph, label %._crit_edge

.lr.ph:                                           ; preds = %_ZN4llvm4yaml6Output6outputENS_9StringRefE.exit9, %_ZN4llvm4yaml6Output6outputENS_9StringRefE.exit11
  %.024 = phi i32 [ %66, %_ZN4llvm4yaml6Output6outputENS_9StringRefE.exit11 ], [ 0, %_ZN4llvm4yaml6Output6outputENS_9StringRefE.exit9 ]
  %53 = load i32, ptr %33, align 8
  %54 = add i32 %53, 1
  store i32 %54, ptr %33, align 8
  %55 = load ptr, ptr %38, align 8
  %56 = getelementptr inbounds nuw i8, ptr %55, i64 24
  %57 = load ptr, ptr %56, align 8
  %58 = getelementptr inbounds nuw i8, ptr %55, i64 32
  %59 = load ptr, ptr %58, align 8
  %60 = icmp eq ptr %57, %59
  br i1 %60, label %61, label %63

61:                                               ; preds = %.lr.ph
  %62 = tail call noundef nonnull align 8 dereferenceable(48) ptr @_ZN4llvm11raw_ostream5writeEPKcm(ptr noundef nonnull align 8 dereferenceable(48) %55, ptr noundef nonnull @.str.15, i64 noundef 1) #32
  br label %_ZN4llvm4yaml6Output6outputENS_9StringRefE.exit11

63:                                               ; preds = %.lr.ph
  store i8 32, ptr %59, align 1
  %64 = load ptr, ptr %58, align 8
  %65 = getelementptr inbounds nuw i8, ptr %64, i64 1
  store ptr %65, ptr %58, align 8
  br label %_ZN4llvm4yaml6Output6outputENS_9StringRefE.exit11

_ZN4llvm4yaml6Output6outputENS_9StringRefE.exit11: ; preds = %61, %63
  %66 = add nuw nsw i32 %.024, 1
  %67 = load i32, ptr %50, align 8
  %68 = icmp slt i32 %66, %67
  br i1 %68, label %.lr.ph, label %._crit_edge, !llvm.loop !64

._crit_edge:                                      ; preds = %_ZN4llvm4yaml6Output6outputENS_9StringRefE.exit11, %_ZN4llvm4yaml6Output6outputENS_9StringRefE.exit9
  %.lcssa = phi i32 [ %51, %_ZN4llvm4yaml6Output6outputENS_9StringRefE.exit9 ], [ %67, %_ZN4llvm4yaml6Output6outputENS_9StringRefE.exit11 ]
  %69 = add i32 %.lcssa, 2
  store i32 %69, ptr %33, align 8
  %70 = load ptr, ptr %38, align 8
  %71 = getelementptr inbounds nuw i8, ptr %70, i64 24
  %72 = load ptr, ptr %71, align 8
  %73 = getelementptr inbounds nuw i8, ptr %70, i64 32
  %74 = load ptr, ptr %73, align 8
  %75 = ptrtoint ptr %72 to i64
  %76 = ptrtoint ptr %74 to i64
  %77 = sub i64 %75, %76
  %78 = icmp ult i64 %77, 2
  br i1 %78, label %79, label %81

79:                                               ; preds = %._crit_edge
  %80 = tail call noundef nonnull align 8 dereferenceable(48) ptr @_ZN4llvm11raw_ostream5writeEPKcm(ptr noundef nonnull align 8 dereferenceable(48) %70, ptr noundef nonnull @.str.27, i64 noundef 2) #32
  br label %_ZN4llvm4yaml6Output6outputENS_9StringRefE.exit13

81:                                               ; preds = %._crit_edge
  store i16 8224, ptr %74, align 1
  %82 = load ptr, ptr %73, align 8
  %83 = getelementptr inbounds nuw i8, ptr %82, i64 2
  store ptr %83, ptr %73, align 8
  br label %_ZN4llvm4yaml6Output6outputENS_9StringRefE.exit13

_ZN4llvm4yaml6Output6outputENS_9StringRefE.exit13: ; preds = %81, %79, %32, %_ZN4llvm4yaml6Output6outputENS_9StringRefE.exit
  %84 = tail call noundef i32 @_ZN4llvm4yaml11needsQuotesENS_9StringRefEb(ptr %1, i64 %2, i1 noundef zeroext false)
  tail call void @_ZN4llvm4yaml6Output6outputENS_9StringRefENS0_11QuotingTypeE(ptr noundef nonnull align 8 dereferenceable(128) %0, ptr %1, i64 %2, i32 noundef %84)
  %85 = getelementptr inbounds nuw i8, ptr %0, i64 80
  %86 = load i32, ptr %85, align 8
  %87 = add i32 %86, 2
  store i32 %87, ptr %85, align 8
  %88 = getelementptr inbounds nuw i8, ptr %0, i64 16
  %89 = load ptr, ptr %88, align 8
  %90 = getelementptr inbounds nuw i8, ptr %89, i64 24
  %91 = load ptr, ptr %90, align 8
  %92 = getelementptr inbounds nuw i8, ptr %89, i64 32
  %93 = load ptr, ptr %92, align 8
  %94 = ptrtoint ptr %91 to i64
  %95 = ptrtoint ptr %93 to i64
  %96 = sub i64 %94, %95
  %97 = icmp ult i64 %96, 2
  br i1 %97, label %98, label %100

98:                                               ; preds = %_ZN4llvm4yaml6Output6outputENS_9StringRefE.exit13
  %99 = tail call noundef nonnull align 8 dereferenceable(48) ptr @_ZN4llvm11raw_ostream5writeEPKcm(ptr noundef nonnull align 8 dereferenceable(48) %89, ptr noundef nonnull @.str.35, i64 noundef 2) #32
  br label %_ZN4llvm4yaml6Output6outputENS_9StringRefE.exit15

100:                                              ; preds = %_ZN4llvm4yaml6Output6outputENS_9StringRefE.exit13
  store i16 8250, ptr %93, align 1
  %101 = load ptr, ptr %92, align 8
  %102 = getelementptr inbounds nuw i8, ptr %101, i64 2
  store ptr %102, ptr %92, align 8
  br label %_ZN4llvm4yaml6Output6outputENS_9StringRefE.exit15

_ZN4llvm4yaml6Output6outputENS_9StringRefE.exit15: ; preds = %98, %100
  ret void
}